target datalayout = "e-m:e-p270:32:32-p271:32:32-p272:64:64-i64:64-i128:128-f80:128-n8:16:32:64-S128"
target triple = "x86_64-unknown-linux-gnu"

%struct.QTailQLink = type { ptr, ptr }
%struct.BlockDriverState = type { i32, i8, i8, i8, i8, i8, ptr, ptr, ptr, %struct.anon.0, i8, [4096 x i8], [4096 x i8], [4096 x i8], [16 x i8], ptr, [4096 x i8], %struct.BlockLimits, i32, i32, i32, i32, [32 x i8], %union.anon.1, %union.anon.2, %union.anon.3, i32, [16 x %struct.anon.4], ptr, %struct.anon.5, ptr, ptr, %struct.anon.6, ptr, ptr, i32, ptr, i64, i64, %struct.QemuMutex, %struct.anon.7, %struct.Stat64, i32, i32, i32, i32, i32, i32, %struct.QemuMutex, %struct.anon.8, %struct.CoQueue, i8, i32, i8, %struct.CoMutex, ptr, ptr }
%struct.anon.0 = type { ptr }
%struct.BlockLimits = type { i32, i64, i32, i64, i32, i32, i32, i64, i32, i64, i64, i32, i8, i32, i32, i32, i32, i32, i32, i32 }
%union.anon.1 = type { %struct.QTailQLink }
%union.anon.2 = type { %struct.QTailQLink }
%union.anon.3 = type { %struct.QTailQLink }
%struct.anon.4 = type { ptr }
%struct.anon.5 = type { ptr }
%struct.anon.6 = type { ptr }
%struct.anon.7 = type { ptr }
%struct.Stat64 = type { i64 }
%struct.QemuMutex = type { %union.pthread_mutex_t, i8 }
%union.pthread_mutex_t = type { %struct.__pthread_mutex_s }
%struct.__pthread_mutex_s = type { i32, i32, i32, i32, i32, i16, i16, %struct.__pthread_internal_list }
%struct.__pthread_internal_list = type { ptr, ptr }
%struct.anon.8 = type { ptr }
%struct.CoQueue = type { %struct.anon.9 }
%struct.anon.9 = type { ptr, ptr }
%struct.CoMutex = type { i32, ptr, %struct.anon.10, %struct.anon.10, i32, i32, ptr }
%struct.anon.10 = type { ptr }
%struct.VmdkExtent = type { ptr, i8, i8, i8, i8, i8, i64, i64, i32, i32, i64, i64, i64, i64, i64, ptr, ptr, i32, i32, i32, ptr, [16 x i32], [16 x i32], i64, i64, ptr }
%struct.BdrvChild = type { ptr, ptr, ptr, i32, ptr, i64, i64, i8, i8, %struct.anon.11, %struct.anon.12 }
%struct.anon.11 = type { ptr, ptr }
%struct.anon.12 = type { ptr, ptr }

@.str.24 = private unnamed_addr constant [21 x i8] c"../qemu/block/vmdk.c\00", align 1
@__func__.vmdk_init_tables = private unnamed_addr constant [17 x i8] c"vmdk_init_tables\00", align 1
@.str.37 = private unnamed_addr constant [41 x i8] c"Could not read l1 table from extent '%s'\00", align 1
@.str.38 = private unnamed_addr constant [39 x i8] c"extent->entry_size == sizeof(uint32_t)\00", align 1
@__PRETTY_FUNCTION__.vmdk_init_tables = private unnamed_addr constant [65 x i8] c"int vmdk_init_tables(BlockDriverState *, VmdkExtent *, Error **)\00", align 1
@.str.39 = private unnamed_addr constant [18 x i8] c"!extent->sesparse\00", align 1
@.str.40 = private unnamed_addr constant [48 x i8] c"Could not read l1 backup table from extent '%s'\00", align 1

; Function Attrs: nounwind sspstrong uwtable
define internal void @le32_to_cpus(ptr noundef %p) #0 {
entry:
  %p.addr = alloca ptr, align 8
  store ptr %p, ptr %p.addr, align 8
  ret void
}

; Function Attrs: nounwind sspstrong uwtable
define internal void @le64_to_cpus(ptr noundef %p) #0 {
entry:
  %p.addr = alloca ptr, align 8
  store ptr %p, ptr %p.addr, align 8
  ret void
}

; Function Attrs: nounwind sspstrong uwtable
define internal i32 @vmdk_init_tables(ptr noundef %bs, ptr noundef %extent, ptr noundef %errp) #0 {
entry:
  %retval = alloca i32, align 4
  %bs.addr = alloca ptr, align 8
  %extent.addr = alloca ptr, align 8
  %errp.addr = alloca ptr, align 8
  %ret = alloca i32, align 4
  %l1_size = alloca i64, align 8
  %i = alloca i32, align 4
  store ptr %bs, ptr %bs.addr, align 8
  store ptr %extent, ptr %extent.addr, align 8
  store ptr %errp, ptr %errp.addr, align 8
  %0 = load ptr, ptr %extent.addr, align 8
  %l1_size1 = getelementptr inbounds %struct.VmdkExtent, ptr %0, i32 0, i32 17
  %1 = load i32, ptr %l1_size1, align 8
  %2 = load ptr, ptr %extent.addr, align 8
  %entry_size = getelementptr inbounds %struct.VmdkExtent, ptr %2, i32 0, i32 8
  %3 = load i32, ptr %entry_size, align 8
  %mul = mul i32 %1, %3
  %conv = zext i32 %mul to i64
  store i64 %conv, ptr %l1_size, align 8
  %4 = load i64, ptr %l1_size, align 8
  %call = call noalias ptr @g_try_malloc(i64 noundef %4) #12
  %5 = load ptr, ptr %extent.addr, align 8
  %l1_table = getelementptr inbounds %struct.VmdkExtent, ptr %5, i32 0, i32 15
  store ptr %call, ptr %l1_table, align 8
  %6 = load i64, ptr %l1_size, align 8
  %tobool = icmp ne i64 %6, 0
  br i1 %tobool, label %land.lhs.true, label %if.end

land.lhs.true:                                    ; preds = %entry
  %7 = load ptr, ptr %extent.addr, align 8
  %l1_table2 = getelementptr inbounds %struct.VmdkExtent, ptr %7, i32 0, i32 15
  %8 = load ptr, ptr %l1_table2, align 8
  %cmp = icmp eq ptr %8, null
  br i1 %cmp, label %if.then, label %if.end

if.then:                                          ; preds = %land.lhs.true
  store i32 -12, ptr %retval, align 4
  br label %return

if.end:                                           ; preds = %land.lhs.true, %entry
  %9 = load ptr, ptr %extent.addr, align 8
  %file = getelementptr inbounds %struct.VmdkExtent, ptr %9, i32 0, i32 0
  %10 = load ptr, ptr %file, align 8
  %11 = load ptr, ptr %extent.addr, align 8
  %l1_table_offset = getelementptr inbounds %struct.VmdkExtent, ptr %11, i32 0, i32 13
  %12 = load i64, ptr %l1_table_offset, align 8
  %13 = load i64, ptr %l1_size, align 8
  %14 = load ptr, ptr %extent.addr, align 8
  %l1_table4 = getelementptr inbounds %struct.VmdkExtent, ptr %14, i32 0, i32 15
  %15 = load ptr, ptr %l1_table4, align 8
  %call5 = call i32 @bdrv_pread(ptr noundef %10, i64 noundef %12, i64 noundef %13, ptr noundef %15, i32 noundef 0)
  store i32 %call5, ptr %ret, align 4
  %16 = load i32, ptr %ret, align 4
  %cmp6 = icmp slt i32 %16, 0
  br i1 %cmp6, label %if.then8, label %if.end13

if.then8:                                         ; preds = %if.end
  %17 = load ptr, ptr %extent.addr, align 8
  %file9 = getelementptr inbounds %struct.VmdkExtent, ptr %17, i32 0, i32 0
  %18 = load ptr, ptr %file9, align 8
  %bs10 = getelementptr inbounds %struct.BdrvChild, ptr %18, i32 0, i32 0
  %19 = load ptr, ptr %bs10, align 8
  call void @bdrv_refresh_filename(ptr noundef %19)
  %20 = load ptr, ptr %errp.addr, align 8
  %21 = load i32, ptr %ret, align 4
  %sub = sub i32 0, %21
  %22 = load ptr, ptr %extent.addr, align 8
  %file11 = getelementptr inbounds %struct.VmdkExtent, ptr %22, i32 0, i32 0
  %23 = load ptr, ptr %file11, align 8
  %bs12 = getelementptr inbounds %struct.BdrvChild, ptr %23, i32 0, i32 0
  %24 = load ptr, ptr %bs12, align 8
  %filename = getelementptr inbounds %struct.BlockDriverState, ptr %24, i32 0, i32 11
  %arraydecay = getelementptr inbounds [4096 x i8], ptr %filename, i64 0, i64 0
  call void (ptr, ptr, i32, ptr, i32, ptr, ...) @error_setg_errno_internal(ptr noundef %20, ptr noundef @.str.24, i32 noundef 620, ptr noundef @__func__.vmdk_init_tables, i32 noundef %sub, ptr noundef @.str.37, ptr noundef %arraydecay)
  br label %fail_l1

if.end13:                                         ; preds = %if.end
  store i32 0, ptr %i, align 4
  br label %for.cond

for.cond:                                         ; preds = %for.inc, %if.end13
  %25 = load i32, ptr %i, align 4
  %26 = load ptr, ptr %extent.addr, align 8
  %l1_size14 = getelementptr inbounds %struct.VmdkExtent, ptr %26, i32 0, i32 17
  %27 = load i32, ptr %l1_size14, align 8
  %cmp15 = icmp ult i32 %25, %27
  br i1 %cmp15, label %for.body, label %for.end

for.body:                                         ; preds = %for.cond
  %28 = load ptr, ptr %extent.addr, align 8
  %entry_size17 = getelementptr inbounds %struct.VmdkExtent, ptr %28, i32 0, i32 8
  %29 = load i32, ptr %entry_size17, align 8
  %conv18 = sext i32 %29 to i64
  %cmp19 = icmp eq i64 %conv18, 8
  br i1 %cmp19, label %if.then21, label %if.else

if.then21:                                        ; preds = %for.body
  %30 = load ptr, ptr %extent.addr, align 8
  %l1_table22 = getelementptr inbounds %struct.VmdkExtent, ptr %30, i32 0, i32 15
  %31 = load ptr, ptr %l1_table22, align 8
  %32 = load i32, ptr %i, align 4
  %idx.ext = sext i32 %32 to i64
  %add.ptr = getelementptr i64, ptr %31, i64 %idx.ext
  call void @le64_to_cpus(ptr noundef %add.ptr)
  br label %if.end33

if.else:                                          ; preds = %for.body
  %33 = load ptr, ptr %extent.addr, align 8
  %entry_size23 = getelementptr inbounds %struct.VmdkExtent, ptr %33, i32 0, i32 8
  %34 = load i32, ptr %entry_size23, align 8
  %conv24 = sext i32 %34 to i64
  %cmp25 = icmp eq i64 %conv24, 4
  br i1 %cmp25, label %if.then27, label %if.else28

if.then27:                                        ; preds = %if.else
  br label %if.end29

if.else28:                                        ; preds = %if.else
  call void @__assert_fail(ptr noundef @.str.38, ptr noundef @.str.24, i32 noundef 627, ptr noundef @__PRETTY_FUNCTION__.vmdk_init_tables) #10
  unreachable

if.end29:                                         ; preds = %if.then27
  %35 = load ptr, ptr %extent.addr, align 8
  %l1_table30 = getelementptr inbounds %struct.VmdkExtent, ptr %35, i32 0, i32 15
  %36 = load ptr, ptr %l1_table30, align 8
  %37 = load i32, ptr %i, align 4
  %idx.ext31 = sext i32 %37 to i64
  %add.ptr32 = getelementptr i32, ptr %36, i64 %idx.ext31
  call void @le32_to_cpus(ptr noundef %add.ptr32)
  br label %if.end33

if.end33:                                         ; preds = %if.end29, %if.then21
  br label %for.inc

for.inc:                                          ; preds = %if.end33
  %38 = load i32, ptr %i, align 4
  %inc = add i32 %38, 1
  store i32 %inc, ptr %i, align 4
  br label %for.cond, !llvm.loop !19

for.end:                                          ; preds = %for.cond
  %39 = load ptr, ptr %extent.addr, align 8
  %l1_backup_table_offset = getelementptr inbounds %struct.VmdkExtent, ptr %39, i32 0, i32 14
  %40 = load i64, ptr %l1_backup_table_offset, align 8
  %tobool34 = icmp ne i64 %40, 0
  br i1 %tobool34, label %if.then35, label %if.end72

if.then35:                                        ; preds = %for.end
  %41 = load ptr, ptr %extent.addr, align 8
  %sesparse = getelementptr inbounds %struct.VmdkExtent, ptr %41, i32 0, i32 5
  %42 = load i8, ptr %sesparse, align 4
  %tobool36 = trunc i8 %42 to i1
  br i1 %tobool36, label %if.else38, label %if.then37

if.then37:                                        ; preds = %if.then35
  br label %if.end39

if.else38:                                        ; preds = %if.then35
  call void @__assert_fail(ptr noundef @.str.39, ptr noundef @.str.24, i32 noundef 633, ptr noundef @__PRETTY_FUNCTION__.vmdk_init_tables) #10
  unreachable

if.end39:                                         ; preds = %if.then37
  %43 = load i64, ptr %l1_size, align 8
  %call40 = call noalias ptr @g_try_malloc(i64 noundef %43) #12
  %44 = load ptr, ptr %extent.addr, align 8
  %l1_backup_table = getelementptr inbounds %struct.VmdkExtent, ptr %44, i32 0, i32 16
  store ptr %call40, ptr %l1_backup_table, align 8
  %45 = load i64, ptr %l1_size, align 8
  %tobool41 = icmp ne i64 %45, 0
  br i1 %tobool41, label %land.lhs.true42, label %if.end47

land.lhs.true42:                                  ; preds = %if.end39
  %46 = load ptr, ptr %extent.addr, align 8
  %l1_backup_table43 = getelementptr inbounds %struct.VmdkExtent, ptr %46, i32 0, i32 16
  %47 = load ptr, ptr %l1_backup_table43, align 8
  %cmp44 = icmp eq ptr %47, null
  br i1 %cmp44, label %if.then46, label %if.end47

if.then46:                                        ; preds = %land.lhs.true42
  store i32 -12, ptr %ret, align 4
  br label %fail_l1

if.end47:                                         ; preds = %land.lhs.true42, %if.end39
  %48 = load ptr, ptr %extent.addr, align 8
  %file48 = getelementptr inbounds %struct.VmdkExtent, ptr %48, i32 0, i32 0
  %49 = load ptr, ptr %file48, align 8
  %50 = load ptr, ptr %extent.addr, align 8
  %l1_backup_table_offset49 = getelementptr inbounds %struct.VmdkExtent, ptr %50, i32 0, i32 14
  %51 = load i64, ptr %l1_backup_table_offset49, align 8
  %52 = load i64, ptr %l1_size, align 8
  %53 = load ptr, ptr %extent.addr, align 8
  %l1_backup_table50 = getelementptr inbounds %struct.VmdkExtent, ptr %53, i32 0, i32 16
  %54 = load ptr, ptr %l1_backup_table50, align 8
  %call51 = call i32 @bdrv_pread(ptr noundef %49, i64 noundef %51, i64 noundef %52, ptr noundef %54, i32 noundef 0)
  store i32 %call51, ptr %ret, align 4
  %55 = load i32, ptr %ret, align 4
  %cmp52 = icmp slt i32 %55, 0
  br i1 %cmp52, label %if.then54, label %if.end62

if.then54:                                        ; preds = %if.end47
  %56 = load ptr, ptr %extent.addr, align 8
  %file55 = getelementptr inbounds %struct.VmdkExtent, ptr %56, i32 0, i32 0
  %57 = load ptr, ptr %file55, align 8
  %bs56 = getelementptr inbounds %struct.BdrvChild, ptr %57, i32 0, i32 0
  %58 = load ptr, ptr %bs56, align 8
  call void @bdrv_refresh_filename(ptr noundef %58)
  %59 = load ptr, ptr %errp.addr, align 8
  %60 = load i32, ptr %ret, align 4
  %sub57 = sub i32 0, %60
  %61 = load ptr, ptr %extent.addr, align 8
  %file58 = getelementptr inbounds %struct.VmdkExtent, ptr %61, i32 0, i32 0
  %62 = load ptr, ptr %file58, align 8
  %bs59 = getelementptr inbounds %struct.BdrvChild, ptr %62, i32 0, i32 0
  %63 = load ptr, ptr %bs59, align 8
  %filename60 = getelementptr inbounds %struct.BlockDriverState, ptr %63, i32 0, i32 11
  %arraydecay61 = getelementptr inbounds [4096 x i8], ptr %filename60, i64 0, i64 0
  call void (ptr, ptr, i32, ptr, i32, ptr, ...) @error_setg_errno_internal(ptr noundef %59, ptr noundef @.str.24, i32 noundef 645, ptr noundef @__func__.vmdk_init_tables, i32 noundef %sub57, ptr noundef @.str.40, ptr noundef %arraydecay61)
  br label %fail_l1b

if.end62:                                         ; preds = %if.end47
  store i32 0, ptr %i, align 4
  br label %for.cond63

for.cond63:                                       ; preds = %for.inc69, %if.end62
  %64 = load i32, ptr %i, align 4
  %65 = load ptr, ptr %extent.addr, align 8
  %l1_size64 = getelementptr inbounds %struct.VmdkExtent, ptr %65, i32 0, i32 17
  %66 = load i32, ptr %l1_size64, align 8
  %cmp65 = icmp ult i32 %64, %66
  br i1 %cmp65, label %for.body67, label %for.end71

for.body67:                                       ; preds = %for.cond63
  %67 = load ptr, ptr %extent.addr, align 8
  %l1_backup_table68 = getelementptr inbounds %struct.VmdkExtent, ptr %67, i32 0, i32 16
  %68 = load ptr, ptr %l1_backup_table68, align 8
  %69 = load i32, ptr %i, align 4
  %idxprom = sext i32 %69 to i64
  %arrayidx = getelementptr i32, ptr %68, i64 %idxprom
  call void @le32_to_cpus(ptr noundef %arrayidx)
  br label %for.inc69

for.inc69:                                        ; preds = %for.body67
  %70 = load i32, ptr %i, align 4
  %inc70 = add i32 %70, 1
  store i32 %inc70, ptr %i, align 4
  br label %for.cond63, !llvm.loop !20

for.end71:                                        ; preds = %for.cond63
  br label %if.end72

if.end72:                                         ; preds = %for.end71, %for.end
  %71 = load ptr, ptr %extent.addr, align 8
  %entry_size73 = getelementptr inbounds %struct.VmdkExtent, ptr %71, i32 0, i32 8
  %72 = load i32, ptr %entry_size73, align 8
  %73 = load ptr, ptr %extent.addr, align 8
  %l2_size = getelementptr inbounds %struct.VmdkExtent, ptr %73, i32 0, i32 19
  %74 = load i32, ptr %l2_size, align 8
  %mul74 = mul i32 %72, %74
  %mul75 = mul i32 %mul74, 16
  %conv76 = zext i32 %mul75 to i64
  %call77 = call noalias ptr @g_malloc(i64 noundef %conv76) #12
  %75 = load ptr, ptr %extent.addr, align 8
  %l2_cache = getelementptr inbounds %struct.VmdkExtent, ptr %75, i32 0, i32 20
  store ptr %call77, ptr %l2_cache, align 8
  store i32 0, ptr %retval, align 4
  br label %return

fail_l1b:                                         ; preds = %if.then54
  %76 = load ptr, ptr %extent.addr, align 8
  %l1_backup_table78 = getelementptr inbounds %struct.VmdkExtent, ptr %76, i32 0, i32 16
  %77 = load ptr, ptr %l1_backup_table78, align 8
  call void @g_free(ptr noundef %77)
  br label %fail_l1

fail_l1:                                          ; preds = %fail_l1b, %if.then46, %if.then8
  %78 = load ptr, ptr %extent.addr, align 8
  %l1_table79 = getelementptr inbounds %struct.VmdkExtent, ptr %78, i32 0, i32 15
  %79 = load ptr, ptr %l1_table79, align 8
  call void @g_free(ptr noundef %79)
  %80 = load i32, ptr %ret, align 4
  store i32 %80, ptr %retval, align 4
  br label %return

return:                                           ; preds = %fail_l1, %if.end72, %if.then
  %81 = load i32, ptr %retval, align 4
  ret i32 %81
}