; Function Attrs: nounwind sspstrong uwtable
define internal fastcc range(i32 -2147483648, 1) i32 @vmdk_init_tables(ptr noundef captures(none) initializes((80, 88)) %extent, ptr noundef %errp) unnamed_addr #0 {
entry:
  %l1_size1 = getelementptr inbounds nuw i8, ptr %extent, i64 96
  %0 = load i32, ptr %l1_size1, align 8
  %entry_size = getelementptr inbounds nuw i8, ptr %extent, i64 32
  %1 = load i32, ptr %entry_size, align 8
  %mul = mul i32 %1, %0
  %conv = zext i32 %mul to i64
  %call = tail call noalias ptr @g_try_malloc(i64 noundef %conv) #18
  %l1_table = getelementptr inbounds nuw i8, ptr %extent, i64 80
  store ptr %call, ptr %l1_table, align 8
  %tobool.not = icmp ne i32 %mul, 0
  %cmp = icmp eq ptr %call, null
  %or.cond = select i1 %tobool.not, i1 %cmp, i1 false
  br i1 %or.cond, label %return, label %if.end

if.end:                                           ; preds = %entry
  %2 = load ptr, ptr %extent, align 8
  %l1_table_offset = getelementptr inbounds nuw i8, ptr %extent, i64 64
  %3 = load i64, ptr %l1_table_offset, align 8
  %call5 = tail call i32 @bdrv_pread(ptr noundef %2, i64 noundef %3, i64 noundef %conv, ptr noundef %call, i32 noundef 0) #15
  %cmp6 = icmp slt i32 %call5, 0
  br i1 %cmp6, label %if.then8, label %for.cond.preheader

for.cond.preheader:                               ; preds = %if.end
  %4 = load i32, ptr %l1_size1, align 8
  %cmp151.not = icmp eq i32 %4, 0
  br i1 %cmp151.not, label %for.end, label %for.body.lr.ph

for.body.lr.ph:                                   ; preds = %for.cond.preheader
  %5 = load i32, ptr %entry_size, align 8
  switch i32 %5, label %if.else28 [
    i32 8, label %for.end
    i32 4, label %for.end
  ]

if.then8:                                         ; preds = %if.end
  %6 = load ptr, ptr %extent, align 8
  %7 = load ptr, ptr %6, align 8
  tail call void @bdrv_refresh_filename(ptr noundef %7) #15
  %sub = sub i32 0, %call5
  %8 = load ptr, ptr %extent, align 8
  %9 = load ptr, ptr %8, align 8
  %filename = getelementptr inbounds nuw i8, ptr %9, i64 49
  tail call void (ptr, ptr, i32, ptr, i32, ptr, ...) @error_setg_errno_internal(ptr noundef %errp, ptr noundef nonnull @.str.24, i32 noundef 620, ptr noundef nonnull @__func__.vmdk_init_tables, i32 noundef %sub, ptr noundef nonnull @.str.37, ptr noundef nonnull %filename) #15
  br label %fail_l1

if.else28:                                        ; preds = %for.body.lr.ph
  tail call void @__assert_fail(ptr noundef nonnull @.str.38, ptr noundef nonnull @.str.24, i32 noundef 627, ptr noundef nonnull @__PRETTY_FUNCTION__.vmdk_init_tables) #16
  unreachable

for.end:                                          ; preds = %for.body.lr.ph, %for.body.lr.ph, %for.cond.preheader
  %l1_backup_table_offset = getelementptr inbounds nuw i8, ptr %extent, i64 72
  %10 = load i64, ptr %l1_backup_table_offset, align 8
  %tobool34.not = icmp eq i64 %10, 0
  br i1 %tobool34.not, label %if.end72, label %if.then35

if.then35:                                        ; preds = %for.end
  %sesparse = getelementptr inbounds nuw i8, ptr %extent, i64 12
  %11 = load i8, ptr %sesparse, align 4
  %tobool36 = trunc i8 %11 to i1
  br i1 %tobool36, label %if.else38, label %if.end39

if.else38:                                        ; preds = %if.then35
  tail call void @__assert_fail(ptr noundef nonnull @.str.39, ptr noundef nonnull @.str.24, i32 noundef 633, ptr noundef nonnull @__PRETTY_FUNCTION__.vmdk_init_tables) #16
  unreachable

if.end39:                                         ; preds = %if.then35
  %call40 = tail call noalias ptr @g_try_malloc(i64 noundef %conv) #18
  %l1_backup_table = getelementptr inbounds nuw i8, ptr %extent, i64 88
  store ptr %call40, ptr %l1_backup_table, align 8
  %cmp44 = icmp eq ptr %call40, null
  %or.cond47 = select i1 %tobool.not, i1 %cmp44, i1 false
  br i1 %or.cond47, label %fail_l1, label %if.end47

if.end47:                                         ; preds = %if.end39
  %12 = load ptr, ptr %extent, align 8
  %13 = load i64, ptr %l1_backup_table_offset, align 8
  %call51 = tail call i32 @bdrv_pread(ptr noundef %12, i64 noundef %13, i64 noundef %conv, ptr noundef %call40, i32 noundef 0) #15
  %cmp52 = icmp slt i32 %call51, 0
  br i1 %cmp52, label %if.then54, label %if.end72

if.then54:                                        ; preds = %if.end47
  %14 = load ptr, ptr %extent, align 8
  %15 = load ptr, ptr %14, align 8
  tail call void @bdrv_refresh_filename(ptr noundef %15) #15
  %sub57 = sub i32 0, %call51
  %16 = load ptr, ptr %extent, align 8
  %17 = load ptr, ptr %16, align 8
  %filename60 = getelementptr inbounds nuw i8, ptr %17, i64 49
  tail call void (ptr, ptr, i32, ptr, i32, ptr, ...) @error_setg_errno_internal(ptr noundef %errp, ptr noundef nonnull @.str.24, i32 noundef 645, ptr noundef nonnull @__func__.vmdk_init_tables, i32 noundef %sub57, ptr noundef nonnull @.str.40, ptr noundef nonnull %filename60) #15
  %18 = load ptr, ptr %l1_backup_table, align 8
  tail call void @g_free(ptr noundef %18) #15
  br label %fail_l1

if.end72:                                         ; preds = %if.end47, %for.end
  %19 = load i32, ptr %entry_size, align 8
  %l2_size = getelementptr inbounds nuw i8, ptr %extent, i64 104
  %20 = load i32, ptr %l2_size, align 8
  %mul74 = shl i32 %19, 4
  %mul75 = mul i32 %mul74, %20
  %conv76 = zext i32 %mul75 to i64
  %call77 = tail call noalias ptr @g_malloc(i64 noundef %conv76) #18
  %l2_cache = getelementptr inbounds nuw i8, ptr %extent, i64 112
  store ptr %call77, ptr %l2_cache, align 8
  br label %return

fail_l1:                                          ; preds = %if.end39, %if.then54, %if.then8
  %ret.0 = phi i32 [ %call5, %if.then8 ], [ %call51, %if.then54 ], [ -12, %if.end39 ]
  %21 = load ptr, ptr %l1_table, align 8
  tail call void @g_free(ptr noundef %21) #15
  br label %return

return:                                           ; preds = %entry, %fail_l1, %if.end72
  %retval.0 = phi i32 [ %ret.0, %fail_l1 ], [ 0, %if.end72 ], [ -12, %entry ]
  ret i32 %retval.0
}